(dp0
S'EECS'
p1
(lp2
(lp3
F42.29259200117389
aF-83.71376574039459
aI266
aa(lp4
F42.29250866981882
aF-83.71487081050874
aI264
aasS'Duderstadt'
p5
(lp6
(lp7
F42.29067138383511
aF-83.7162870168686
aI261
aa(lp8
F42.29158011297468
aF-83.71514439582826
aI263
aasS'FXB'
p9
(lp10
(lp11
F42.29360387311647
aF-83.71222615242006
aI272
aa(lp12
F42.29359196883519
aF-83.71161460876466
aI274
aasS'Pierpont'
p13
(lp14
(lp15
F42.291536462529756
aF-83.71705412864686
aI261
aa(lp16
F42.29065947899958
aF-83.7178158760071
aI258
aasS'BBB'
p17
(lp18
(lp19
F42.292667396114446
aF-83.71626019477846
aI264
aa(lp20
F42.2933737232794
aF-83.71622264385225
aI271
aas.